target datalayout = "e-m:e-p270:32:32-p271:32:32-p272:64:64-i64:64-i128:128-f80:128-n8:16:32:64-S128"
target triple = "x86_64-pc-linux-gnu"

@.str = private unnamed_addr constant [33 x i8] c"../openssl/crypto/sm2/sm2_sign.c\00", align 1
@__func__.sm2_sig_verify = private unnamed_addr constant [15 x i8] c"sm2_sig_verify\00", align 1

; Function Attrs: nounwind uwtable
define internal i32 @sm2_sig_verify(ptr noundef %0, ptr noundef %1, ptr noundef %2) #0 {
  %4 = alloca ptr, align 8
  %5 = alloca ptr, align 8
  %6 = alloca ptr, align 8
  %7 = alloca i32, align 4
  %8 = alloca ptr, align 8
  %9 = alloca ptr, align 8
  %10 = alloca ptr, align 8
  %11 = alloca ptr, align 8
  %12 = alloca ptr, align 8
  %13 = alloca ptr, align 8
  %14 = alloca ptr, align 8
  %15 = alloca ptr, align 8
  %16 = alloca ptr, align 8
  store ptr %0, ptr %4, align 8, !tbaa !12
  store ptr %1, ptr %5, align 8, !tbaa !29
  store ptr %2, ptr %6, align 8, !tbaa !24
  call void @llvm.lifetime.start.p0(i64 4, ptr %7) #4
  store i32 0, ptr %7, align 4, !tbaa !14
  call void @llvm.lifetime.start.p0(i64 8, ptr %8) #4
  %17 = load ptr, ptr %4, align 8, !tbaa !12
  %18 = call ptr @EC_KEY_get0_group(ptr noundef %17)
  store ptr %18, ptr %8, align 8, !tbaa !16
  call void @llvm.lifetime.start.p0(i64 8, ptr %9) #4
  %19 = load ptr, ptr %8, align 8, !tbaa !16
  %20 = call ptr @EC_GROUP_get0_order(ptr noundef %19)
  store ptr %20, ptr %9, align 8, !tbaa !24
  call void @llvm.lifetime.start.p0(i64 8, ptr %10) #4
  store ptr null, ptr %10, align 8, !tbaa !20
  call void @llvm.lifetime.start.p0(i64 8, ptr %11) #4
  store ptr null, ptr %11, align 8, !tbaa !18
  call void @llvm.lifetime.start.p0(i64 8, ptr %12) #4
  store ptr null, ptr %12, align 8, !tbaa !24
  call void @llvm.lifetime.start.p0(i64 8, ptr %13) #4
  store ptr null, ptr %13, align 8, !tbaa !24
  call void @llvm.lifetime.start.p0(i64 8, ptr %14) #4
  store ptr null, ptr %14, align 8, !tbaa !24
  call void @llvm.lifetime.start.p0(i64 8, ptr %15) #4
  store ptr null, ptr %15, align 8, !tbaa !24
  call void @llvm.lifetime.start.p0(i64 8, ptr %16) #4
  %21 = load ptr, ptr %4, align 8, !tbaa !12
  %22 = call ptr @ossl_ec_key_get_libctx(ptr noundef %21)
  store ptr %22, ptr %16, align 8, !tbaa !31
  %23 = load ptr, ptr %16, align 8, !tbaa !31
  %24 = call ptr @BN_CTX_new_ex(ptr noundef %23)
  store ptr %24, ptr %10, align 8, !tbaa !20
  %25 = load ptr, ptr %10, align 8, !tbaa !20
  %26 = icmp eq ptr %25, null
  br i1 %26, label %27, label %28

27:                                               ; preds = %3
  call void @ERR_new()
  call void @ERR_set_debug(ptr noundef @.str, i32 noundef 342, ptr noundef @__func__.sm2_sig_verify)
  call void (i32, i32, ptr, ...) @ERR_set_error(i32 noundef 53, i32 noundef 524291, ptr noundef null)
  br label %113

28:                                               ; preds = %3
  %29 = load ptr, ptr %10, align 8, !tbaa !20
  call void @BN_CTX_start(ptr noundef %29)
  %30 = load ptr, ptr %10, align 8, !tbaa !20
  %31 = call ptr @BN_CTX_get(ptr noundef %30)
  store ptr %31, ptr %12, align 8, !tbaa !24
  %32 = load ptr, ptr %10, align 8, !tbaa !20
  %33 = call ptr @BN_CTX_get(ptr noundef %32)
  store ptr %33, ptr %13, align 8, !tbaa !24
  %34 = load ptr, ptr %13, align 8, !tbaa !24
  %35 = icmp eq ptr %34, null
  br i1 %35, label %36, label %37

36:                                               ; preds = %28
  call void @ERR_new()
  call void @ERR_set_debug(ptr noundef @.str, i32 noundef 349, ptr noundef @__func__.sm2_sig_verify)
  call void (i32, i32, ptr, ...) @ERR_set_error(i32 noundef 53, i32 noundef 524291, ptr noundef null)
  br label %113

37:                                               ; preds = %28
  %38 = load ptr, ptr %8, align 8, !tbaa !16
  %39 = call ptr @EC_POINT_new(ptr noundef %38)
  store ptr %39, ptr %11, align 8, !tbaa !18
  %40 = load ptr, ptr %11, align 8, !tbaa !18
  %41 = icmp eq ptr %40, null
  br i1 %41, label %42, label %43

42:                                               ; preds = %37
  call void @ERR_new()
  call void @ERR_set_debug(ptr noundef @.str, i32 noundef 355, ptr noundef @__func__.sm2_sig_verify)
  call void (i32, i32, ptr, ...) @ERR_set_error(i32 noundef 53, i32 noundef 524304, ptr noundef null)
  br label %113

43:                                               ; preds = %37
  %44 = load ptr, ptr %5, align 8, !tbaa !29
  call void @ECDSA_SIG_get0(ptr noundef %44, ptr noundef %14, ptr noundef %15)
  %45 = load ptr, ptr %14, align 8, !tbaa !24
  %46 = call ptr @BN_value_one()
  %47 = call i32 @BN_cmp(ptr noundef %45, ptr noundef %46)
  %48 = icmp slt i32 %47, 0
  br i1 %48, label %64, label %49

49:                                               ; preds = %43
  %50 = load ptr, ptr %15, align 8, !tbaa !24
  %51 = call ptr @BN_value_one()
  %52 = call i32 @BN_cmp(ptr noundef %50, ptr noundef %51)
  %53 = icmp slt i32 %52, 0
  br i1 %53, label %64, label %54

54:                                               ; preds = %49
  %55 = load ptr, ptr %9, align 8, !tbaa !24
  %56 = load ptr, ptr %14, align 8, !tbaa !24
  %57 = call i32 @BN_cmp(ptr noundef %55, ptr noundef %56)
  %58 = icmp sle i32 %57, 0
  br i1 %58, label %64, label %59

59:                                               ; preds = %54
  %60 = load ptr, ptr %9, align 8, !tbaa !24
  %61 = load ptr, ptr %15, align 8, !tbaa !24
  %62 = call i32 @BN_cmp(ptr noundef %60, ptr noundef %61)
  %63 = icmp sle i32 %62, 0
  br i1 %63, label %64, label %65

64:                                               ; preds = %59, %54, %49, %43
  call void @ERR_new()
  call void @ERR_set_debug(ptr noundef @.str, i32 noundef 375, ptr noundef @__func__.sm2_sig_verify)
  call void (i32, i32, ptr, ...) @ERR_set_error(i32 noundef 53, i32 noundef 101, ptr noundef null)
  br label %113

65:                                               ; preds = %59
  %66 = load ptr, ptr %12, align 8, !tbaa !24
  %67 = load ptr, ptr %14, align 8, !tbaa !24
  %68 = load ptr, ptr %15, align 8, !tbaa !24
  %69 = load ptr, ptr %9, align 8, !tbaa !24
  %70 = load ptr, ptr %10, align 8, !tbaa !20
  %71 = call i32 @BN_mod_add(ptr noundef %66, ptr noundef %67, ptr noundef %68, ptr noundef %69, ptr noundef %70)
  %72 = icmp ne i32 %71, 0
  br i1 %72, label %74, label %73

73:                                               ; preds = %65
  call void @ERR_new()
  call void @ERR_set_debug(ptr noundef @.str, i32 noundef 380, ptr noundef @__func__.sm2_sig_verify)
  call void (i32, i32, ptr, ...) @ERR_set_error(i32 noundef 53, i32 noundef 524291, ptr noundef null)
  br label %113

74:                                               ; preds = %65
  %75 = load ptr, ptr %12, align 8, !tbaa !24
  %76 = call i32 @BN_is_zero(ptr noundef %75)
  %77 = icmp ne i32 %76, 0
  br i1 %77, label %78, label %79

78:                                               ; preds = %74
  call void @ERR_new()
  call void @ERR_set_debug(ptr noundef @.str, i32 noundef 385, ptr noundef @__func__.sm2_sig_verify)
  call void (i32, i32, ptr, ...) @ERR_set_error(i32 noundef 53, i32 noundef 101, ptr noundef null)
  br label %113

79:                                               ; preds = %74
  %80 = load ptr, ptr %8, align 8, !tbaa !16
  %81 = load ptr, ptr %11, align 8, !tbaa !18
  %82 = load ptr, ptr %15, align 8, !tbaa !24
  %83 = load ptr, ptr %4, align 8, !tbaa !12
  %84 = call ptr @EC_KEY_get0_public_key(ptr noundef %83)
  %85 = load ptr, ptr %12, align 8, !tbaa !24
  %86 = load ptr, ptr %10, align 8, !tbaa !20
  %87 = call i32 @EC_POINT_mul(ptr noundef %80, ptr noundef %81, ptr noundef %82, ptr noundef %84, ptr noundef %85, ptr noundef %86)
  %88 = icmp ne i32 %87, 0
  br i1 %88, label %89, label %96

89:                                               ; preds = %79
  %90 = load ptr, ptr %8, align 8, !tbaa !16
  %91 = load ptr, ptr %11, align 8, !tbaa !18
  %92 = load ptr, ptr %13, align 8, !tbaa !24
  %93 = load ptr, ptr %10, align 8, !tbaa !20
  %94 = call i32 @EC_POINT_get_affine_coordinates(ptr noundef %90, ptr noundef %91, ptr noundef %92, ptr noundef null, ptr noundef %93)
  %95 = icmp ne i32 %94, 0
  br i1 %95, label %97, label %96

96:                                               ; preds = %89, %79
  call void @ERR_new()
  call void @ERR_set_debug(ptr noundef @.str, i32 noundef 391, ptr noundef @__func__.sm2_sig_verify)
  call void (i32, i32, ptr, ...) @ERR_set_error(i32 noundef 53, i32 noundef 524304, ptr noundef null)
  br label %113

97:                                               ; preds = %89
  %98 = load ptr, ptr %12, align 8, !tbaa !24
  %99 = load ptr, ptr %6, align 8, !tbaa !24
  %100 = load ptr, ptr %13, align 8, !tbaa !24
  %101 = load ptr, ptr %9, align 8, !tbaa !24
  %102 = load ptr, ptr %10, align 8, !tbaa !20
  %103 = call i32 @BN_mod_add(ptr noundef %98, ptr noundef %99, ptr noundef %100, ptr noundef %101, ptr noundef %102)
  %104 = icmp ne i32 %103, 0
  br i1 %104, label %106, label %105

105:                                              ; preds = %97
  call void @ERR_new()
  call void @ERR_set_debug(ptr noundef @.str, i32 noundef 396, ptr noundef @__func__.sm2_sig_verify)
  call void (i32, i32, ptr, ...) @ERR_set_error(i32 noundef 53, i32 noundef 524291, ptr noundef null)
  br label %113

106:                                              ; preds = %97
  %107 = load ptr, ptr %14, align 8, !tbaa !24
  %108 = load ptr, ptr %12, align 8, !tbaa !24
  %109 = call i32 @BN_cmp(ptr noundef %107, ptr noundef %108)
  %110 = icmp eq i32 %109, 0
  br i1 %110, label %111, label %112

111:                                              ; preds = %106
  store i32 1, ptr %7, align 4, !tbaa !14
  br label %112

112:                                              ; preds = %111, %106
  br label %113

113:                                              ; preds = %112, %105, %96, %78, %73, %64, %42, %36, %27
  %114 = load ptr, ptr %10, align 8, !tbaa !20
  call void @BN_CTX_end(ptr noundef %114)
  %115 = load ptr, ptr %11, align 8, !tbaa !18
  call void @EC_POINT_free(ptr noundef %115)
  %116 = load ptr, ptr %10, align 8, !tbaa !20
  call void @BN_CTX_free(ptr noundef %116)
  %117 = load i32, ptr %7, align 4, !tbaa !14
  call void @llvm.lifetime.end.p0(i64 8, ptr %16) #4
  call void @llvm.lifetime.end.p0(i64 8, ptr %15) #4
  call void @llvm.lifetime.end.p0(i64 8, ptr %14) #4
  call void @llvm.lifetime.end.p0(i64 8, ptr %13) #4
  call void @llvm.lifetime.end.p0(i64 8, ptr %12) #4
  call void @llvm.lifetime.end.p0(i64 8, ptr %11) #4
  call void @llvm.lifetime.end.p0(i64 8, ptr %10) #4
  call void @llvm.lifetime.end.p0(i64 8, ptr %9) #4
  call void @llvm.lifetime.end.p0(i64 8, ptr %8) #4
  call void @llvm.lifetime.end.p0(i64 4, ptr %7) #4
  ret i32 %117
}