; Function Attrs: nounwind uwtable
define internal fastcc range(i32 0, 2) i32 @sm2_sig_verify(ptr noundef %0, ptr noundef %1, ptr noundef nonnull %2) unnamed_addr #0 {
  %4 = alloca ptr, align 8
  %5 = alloca ptr, align 8
  %6 = tail call ptr @EC_KEY_get0_group(ptr noundef %0) #4
  %7 = tail call ptr @EC_GROUP_get0_order(ptr noundef %6) #4
  call void @llvm.lifetime.start.p0(i64 8, ptr nonnull %4) #4
  store ptr null, ptr %4, align 8, !tbaa !6
  call void @llvm.lifetime.start.p0(i64 8, ptr nonnull %5) #4
  store ptr null, ptr %5, align 8, !tbaa !6
  %8 = tail call ptr @ossl_ec_key_get_libctx(ptr noundef %0) #4
  %9 = tail call ptr @BN_CTX_new_ex(ptr noundef %8) #4
  %10 = icmp eq ptr %9, null
  br i1 %10, label %11, label %12

11:                                               ; preds = %3
  tail call void @ERR_new() #4
  tail call void @ERR_set_debug(ptr noundef nonnull @.str, i32 noundef 342, ptr noundef nonnull @__func__.sm2_sig_verify) #4
  tail call void (i32, i32, ptr, ...) @ERR_set_error(i32 noundef 53, i32 noundef 524291, ptr noundef null) #4
  br label %62

12:                                               ; preds = %3
  tail call void @BN_CTX_start(ptr noundef nonnull %9) #4
  %13 = tail call ptr @BN_CTX_get(ptr noundef nonnull %9) #4
  %14 = tail call ptr @BN_CTX_get(ptr noundef nonnull %9) #4
  %15 = icmp eq ptr %14, null
  br i1 %15, label %16, label %17

16:                                               ; preds = %12
  tail call void @ERR_new() #4
  tail call void @ERR_set_debug(ptr noundef nonnull @.str, i32 noundef 349, ptr noundef nonnull @__func__.sm2_sig_verify) #4
  tail call void (i32, i32, ptr, ...) @ERR_set_error(i32 noundef 53, i32 noundef 524291, ptr noundef null) #4
  br label %62

17:                                               ; preds = %12
  %18 = tail call ptr @EC_POINT_new(ptr noundef %6) #4
  %19 = icmp eq ptr %18, null
  br i1 %19, label %20, label %21

20:                                               ; preds = %17
  tail call void @ERR_new() #4
  tail call void @ERR_set_debug(ptr noundef nonnull @.str, i32 noundef 355, ptr noundef nonnull @__func__.sm2_sig_verify) #4
  tail call void (i32, i32, ptr, ...) @ERR_set_error(i32 noundef 53, i32 noundef 524304, ptr noundef null) #4
  br label %62

21:                                               ; preds = %17
  call void @ECDSA_SIG_get0(ptr noundef %1, ptr noundef nonnull %4, ptr noundef nonnull %5) #4
  %22 = load ptr, ptr %4, align 8, !tbaa !6
  %23 = call ptr @BN_value_one() #4
  %24 = call i32 @BN_cmp(ptr noundef %22, ptr noundef %23) #4
  %25 = icmp slt i32 %24, 0
  br i1 %25, label %39, label %26

26:                                               ; preds = %21
  %27 = load ptr, ptr %5, align 8, !tbaa !6
  %28 = call ptr @BN_value_one() #4
  %29 = call i32 @BN_cmp(ptr noundef %27, ptr noundef %28) #4
  %30 = icmp slt i32 %29, 0
  br i1 %30, label %39, label %31

31:                                               ; preds = %26
  %32 = load ptr, ptr %4, align 8, !tbaa !6
  %33 = call i32 @BN_cmp(ptr noundef %7, ptr noundef %32) #4
  %34 = icmp slt i32 %33, 1
  br i1 %34, label %39, label %35

35:                                               ; preds = %31
  %36 = load ptr, ptr %5, align 8, !tbaa !6
  %37 = call i32 @BN_cmp(ptr noundef %7, ptr noundef %36) #4
  %38 = icmp slt i32 %37, 1
  br i1 %38, label %39, label %40

39:                                               ; preds = %35, %31, %26, %21
  call void @ERR_new() #4
  call void @ERR_set_debug(ptr noundef nonnull @.str, i32 noundef 375, ptr noundef nonnull @__func__.sm2_sig_verify) #4
  call void (i32, i32, ptr, ...) @ERR_set_error(i32 noundef 53, i32 noundef 101, ptr noundef null) #4
  br label %62

40:                                               ; preds = %35
  %41 = load ptr, ptr %4, align 8, !tbaa !6
  %42 = load ptr, ptr %5, align 8, !tbaa !6
  %43 = call i32 @BN_mod_add(ptr noundef %13, ptr noundef %41, ptr noundef %42, ptr noundef %7, ptr noundef nonnull %9) #4
  %.not = icmp eq i32 %43, 0
  br i1 %.not, label %44, label %45

44:                                               ; preds = %40
  call void @ERR_new() #4
  call void @ERR_set_debug(ptr noundef nonnull @.str, i32 noundef 380, ptr noundef nonnull @__func__.sm2_sig_verify) #4
  call void (i32, i32, ptr, ...) @ERR_set_error(i32 noundef 53, i32 noundef 524291, ptr noundef null) #4
  br label %62

45:                                               ; preds = %40
  %46 = call i32 @BN_is_zero(ptr noundef %13) #4
  %.not40 = icmp eq i32 %46, 0
  br i1 %.not40, label %48, label %47

47:                                               ; preds = %45
  call void @ERR_new() #4
  call void @ERR_set_debug(ptr noundef nonnull @.str, i32 noundef 385, ptr noundef nonnull @__func__.sm2_sig_verify) #4
  call void (i32, i32, ptr, ...) @ERR_set_error(i32 noundef 53, i32 noundef 101, ptr noundef null) #4
  br label %62

48:                                               ; preds = %45
  %49 = load ptr, ptr %5, align 8, !tbaa !6
  %50 = call ptr @EC_KEY_get0_public_key(ptr noundef %0) #4
  %51 = call i32 @EC_POINT_mul(ptr noundef %6, ptr noundef nonnull %18, ptr noundef %49, ptr noundef %50, ptr noundef %13, ptr noundef nonnull %9) #4
  %.not41 = icmp eq i32 %51, 0
  br i1 %.not41, label %54, label %52

52:                                               ; preds = %48
  %53 = call i32 @EC_POINT_get_affine_coordinates(ptr noundef %6, ptr noundef nonnull %18, ptr noundef nonnull %14, ptr noundef null, ptr noundef nonnull %9) #4
  %.not42 = icmp eq i32 %53, 0
  br i1 %.not42, label %54, label %55

54:                                               ; preds = %52, %48
  call void @ERR_new() #4
  call void @ERR_set_debug(ptr noundef nonnull @.str, i32 noundef 391, ptr noundef nonnull @__func__.sm2_sig_verify) #4
  call void (i32, i32, ptr, ...) @ERR_set_error(i32 noundef 53, i32 noundef 524304, ptr noundef null) #4
  br label %62

55:                                               ; preds = %52
  %56 = call i32 @BN_mod_add(ptr noundef %13, ptr noundef nonnull %2, ptr noundef nonnull %14, ptr noundef %7, ptr noundef nonnull %9) #4
  %.not43 = icmp eq i32 %56, 0
  br i1 %.not43, label %57, label %58

57:                                               ; preds = %55
  call void @ERR_new() #4
  call void @ERR_set_debug(ptr noundef nonnull @.str, i32 noundef 396, ptr noundef nonnull @__func__.sm2_sig_verify) #4
  call void (i32, i32, ptr, ...) @ERR_set_error(i32 noundef 53, i32 noundef 524291, ptr noundef null) #4
  br label %62

58:                                               ; preds = %55
  %59 = load ptr, ptr %4, align 8, !tbaa !6
  %60 = call i32 @BN_cmp(ptr noundef %59, ptr noundef %13) #4
  %61 = icmp eq i32 %60, 0
  %spec.select = zext i1 %61 to i32
  br label %62

62:                                               ; preds = %58, %57, %54, %47, %44, %39, %20, %16, %11
  %.036 = phi ptr [ null, %11 ], [ null, %16 ], [ null, %20 ], [ %18, %39 ], [ %18, %47 ], [ %18, %57 ], [ %18, %54 ], [ %18, %44 ], [ %18, %58 ]
  %.0 = phi i32 [ 0, %11 ], [ 0, %16 ], [ 0, %20 ], [ 0, %39 ], [ 0, %47 ], [ 0, %57 ], [ 0, %54 ], [ 0, %44 ], [ %spec.select, %58 ]
  call void @BN_CTX_end(ptr noundef %9) #4
  call void @EC_POINT_free(ptr noundef %.036) #4
  call void @BN_CTX_free(ptr noundef %9) #4
  call void @llvm.lifetime.end.p0(i64 8, ptr nonnull %5) #4
  call void @llvm.lifetime.end.p0(i64 8, ptr nonnull %4) #4
  ret i32 %.0
}